; Function Attrs: nounwind uwtable
define ptr @aginternalmapprint(ptr noundef readonly captures(none) %0, i32 noundef %1, i64 noundef %2) local_unnamed_addr #0 {
  %4 = alloca %struct.IMapEntry_s, align 8
  %5 = getelementptr i8, ptr %0, i64 128
  %.val = load ptr, ptr %5, align 8, !tbaa !3
  call void @llvm.lifetime.start.p0(i64 48, ptr nonnull %4) #10
  %6 = icmp eq i32 %1, 3
  %spec.store.select.i = select i1 %6, i32 2, i32 %1
  %7 = getelementptr inbounds nuw i8, ptr %.val, i64 88
  %8 = sext i32 %spec.store.select.i to i64
  %9 = getelementptr inbounds [3 x ptr], ptr %7, i64 0, i64 %8
  %10 = load ptr, ptr %9, align 8, !tbaa !20
  %.not.i = icmp eq ptr %10, null
  br i1 %.not.i, label %find_isym.exit.thread, label %find_isym.exit

find_isym.exit.thread:                            ; preds = %3
  call void @llvm.lifetime.end.p0(i64 48, ptr nonnull %4) #10
  br label %17

find_isym.exit:                                   ; preds = %3
  %11 = getelementptr inbounds nuw i8, ptr %4, i64 32
  store i64 %2, ptr %11, align 8, !tbaa !28
  %12 = load ptr, ptr %10, align 8, !tbaa !24
  %13 = call ptr %12(ptr noundef nonnull %10, ptr noundef nonnull %4, i32 noundef 4) #10
  call void @llvm.lifetime.end.p0(i64 48, ptr nonnull %4) #10
  %.not = icmp eq ptr %13, null
  br i1 %.not, label %17, label %14

14:                                               ; preds = %find_isym.exit
  %15 = getelementptr inbounds nuw i8, ptr %13, i64 40
  %16 = load ptr, ptr %15, align 8, !tbaa !21
  br label %17

17:                                               ; preds = %find_isym.exit.thread, %find_isym.exit, %14
  %.0 = phi ptr [ %16, %14 ], [ null, %find_isym.exit ], [ null, %find_isym.exit.thread ]
  ret ptr %.0
}